libKF5FollowupReminder.so.5:_ZN16FollowUpReminder20FollowUpReminderInfo10readConfigERK12KConfigGroup
libKF5FollowupReminder.so.5:_ZN16FollowUpReminder20FollowUpReminderInfo10setSubjectERK7QString
libKF5FollowupReminder.so.5:_ZN16FollowUpReminder20FollowUpReminderInfo11writeConfigER12KConfigGroupi
libKF5FollowupReminder.so.5:_ZN16FollowUpReminder20FollowUpReminderInfo12setMessageIdERK7QString
libKF5FollowupReminder.so.5:_ZN16FollowUpReminder20FollowUpReminderInfo19setUniqueIdentifierEi
libKF5FollowupReminder.so.5:_ZN16FollowUpReminder20FollowUpReminderInfo20setAnswerWasReceivedEb
libKF5FollowupReminder.so.5:_ZN16FollowUpReminder20FollowUpReminderInfo22setAnswerMessageItemIdEx
libKF5FollowupReminder.so.5:_ZN16FollowUpReminder20FollowUpReminderInfo23setFollowUpReminderDateERK5QDate
libKF5FollowupReminder.so.5:_ZN16FollowUpReminder20FollowUpReminderInfo24setOriginalMessageItemIdEx
libKF5FollowupReminder.so.5:_ZN16FollowUpReminder20FollowUpReminderInfo5setToERK7QString
libKF5FollowupReminder.so.5:_ZN16FollowUpReminder20FollowUpReminderInfo9setTodoIdEx
libKF5FollowupReminder.so.5:_ZN16FollowUpReminder20FollowUpReminderInfoC1ERK12KConfigGroup
libKF5FollowupReminder.so.5:_ZN16FollowUpReminder20FollowUpReminderInfoC1ERKS0_
libKF5FollowupReminder.so.5:_ZN16FollowUpReminder20FollowUpReminderInfoC1Ev
libKF5FollowupReminder.so.5:_ZN16FollowUpReminder20FollowUpReminderInfoC2ERK12KConfigGroup
libKF5FollowupReminder.so.5:_ZN16FollowUpReminder20FollowUpReminderInfoC2ERKS0_
libKF5FollowupReminder.so.5:_ZN16FollowUpReminder20FollowUpReminderInfoC2Ev
libKF5FollowupReminder.so.5:_ZN16FollowUpReminder20FollowUpReminderUtil13defaultConfigEv
libKF5FollowupReminder.so.5:_ZN16FollowUpReminder20FollowUpReminderUtil23followUpReminderPatternEv
libKF5FollowupReminder.so.5:_ZN16FollowUpReminder20FollowUpReminderUtil25forceReparseConfigurationEv
libKF5FollowupReminder.so.5:_ZN16FollowUpReminder20FollowUpReminderUtil25writeFollowupReminderInfoE28QExplicitlySharedDataPointerI13KSharedConfigEPNS_20FollowUpReminderInfoEb
libKF5FollowupReminder.so.5:_ZN16FollowUpReminder20FollowUpReminderUtil26removeFollowupReminderInfoE28QExplicitlySharedDataPointerI13KSharedConfigERK5QListIiEb
libKF5FollowupReminder.so.5:_ZN16FollowUpReminder20FollowUpReminderUtil28followupReminderAgentEnabledEv
libKF5FollowupReminder.so.5:_ZN16FollowUpReminder20FollowUpReminderUtil34followupReminderAgentWasRegisteredEv
libKF5FollowupReminder.so.5:_ZN16FollowUpReminder20FollowUpReminderUtil6reloadEv
libKF5FollowupReminder.so.5:_ZN29FollowUpReminderAgentSettings4selfEv
libKF5FollowupReminder.so.5:_ZN29FollowUpReminderAgentSettingsC1Ev
libKF5FollowupReminder.so.5:_ZN29FollowUpReminderAgentSettingsC2Ev
libKF5FollowupReminder.so.5:_ZN29FollowUpReminderAgentSettingsD0Ev
libKF5FollowupReminder.so.5:_ZN29FollowUpReminderAgentSettingsD1Ev
libKF5FollowupReminder.so.5:_ZN29FollowUpReminderAgentSettingsD2Ev
libKF5FollowupReminder.so.5:_ZNK16FollowUpReminder20FollowUpReminderInfo16uniqueIdentifierEv
libKF5FollowupReminder.so.5:_ZNK16FollowUpReminder20FollowUpReminderInfo17answerWasReceivedEv
libKF5FollowupReminder.so.5:_ZNK16FollowUpReminder20FollowUpReminderInfo19answerMessageItemIdEv
libKF5FollowupReminder.so.5:_ZNK16FollowUpReminder20FollowUpReminderInfo20followUpReminderDateEv
libKF5FollowupReminder.so.5:_ZNK16FollowUpReminder20FollowUpReminderInfo21originalMessageItemIdEv
libKF5FollowupReminder.so.5:_ZNK16FollowUpReminder20FollowUpReminderInfo2toEv
libKF5FollowupReminder.so.5:_ZNK16FollowUpReminder20FollowUpReminderInfo6todoIdEv
libKF5FollowupReminder.so.5:_ZNK16FollowUpReminder20FollowUpReminderInfo7isValidEv
libKF5FollowupReminder.so.5:_ZNK16FollowUpReminder20FollowUpReminderInfo7subjectEv
libKF5FollowupReminder.so.5:_ZNK16FollowUpReminder20FollowUpReminderInfo9messageIdEv
libKF5FollowupReminder.so.5:_ZNK16FollowUpReminder20FollowUpReminderInfoeqERKS0_
libKF5FollowupReminder.so.5:_Zls6QDebugRKN16FollowUpReminder20FollowUpReminderInfoE
libKF5KaddressbookGrantlee.so.5:_ZN20KAddressBookGrantlee13GrantleePrint14contactsToHtmlERK7QVectorIN9KContacts9AddresseeEE
libKF5KaddressbookGrantlee.so.5:_ZN20KAddressBookGrantlee13GrantleePrint4initEv
libKF5KaddressbookGrantlee.so.5:_ZN20KAddressBookGrantlee13GrantleePrintC1ERK7QString
libKF5KaddressbookGrantlee.so.5:_ZN20KAddressBookGrantlee13GrantleePrintC1Ev
libKF5KaddressbookGrantlee.so.5:_ZN20KAddressBookGrantlee13GrantleePrintC2ERK7QString
libKF5KaddressbookGrantlee.so.5:_ZN20KAddressBookGrantlee13GrantleePrintC2Ev
libKF5KaddressbookGrantlee.so.5:_ZN20KAddressBookGrantlee13GrantleePrintD1Ev
libKF5KaddressbookGrantlee.so.5:_ZN20KAddressBookGrantlee13GrantleePrintD2Ev
libKF5KaddressbookGrantlee.so.5:_ZN20KAddressBookGrantlee21GrantleeContactViewer11qt_metacallEN11QMetaObject4CallEiPPv
libKF5KaddressbookGrantlee.so.5:_ZN20KAddressBookGrantlee21GrantleeContactViewer11qt_metacastEPKc
libKF5KaddressbookGrantlee.so.5:_ZN20KAddressBookGrantlee21GrantleeContactViewer21setForceDisableQRCodeEb
libKF5KaddressbookGrantlee.so.5:_ZN20KAddressBookGrantlee21GrantleeContactViewer29kaddressBookAbsoluteThemePathEv
libKF5KaddressbookGrantlee.so.5:_ZN20KAddressBookGrantlee21GrantleeContactViewerC1EP7QWidget
libKF5KaddressbookGrantlee.so.5:_ZN20KAddressBookGrantlee21GrantleeContactViewerC2EP7QWidget
libKF5KaddressbookGrantlee.so.5:_ZN20KAddressBookGrantlee21GrantleeContactViewerD0Ev
libKF5KaddressbookGrantlee.so.5:_ZN20KAddressBookGrantlee21GrantleeContactViewerD1Ev
libKF5KaddressbookGrantlee.so.5:_ZN20KAddressBookGrantlee21GrantleeContactViewerD2Ev
libKF5KaddressbookGrantlee.so.5:_ZN20KAddressBookGrantlee24GrantleeContactFormatter13setShowQRCodeEb
libKF5KaddressbookGrantlee.so.5:_ZN20KAddressBookGrantlee24GrantleeContactFormatter16setGrantleeThemeERKN13GrantleeTheme5ThemeE
libKF5KaddressbookGrantlee.so.5:_ZN20KAddressBookGrantlee24GrantleeContactFormatter20setAbsoluteThemePathERK7QString
libKF5KaddressbookGrantlee.so.5:_ZN20KAddressBookGrantlee24GrantleeContactFormatter20setApplicationDomainERK10QByteArray
libKF5KaddressbookGrantlee.so.5:_ZN20KAddressBookGrantlee24GrantleeContactFormatter21setForceDisableQRCodeEb
libKF5KaddressbookGrantlee.so.5:_ZN20KAddressBookGrantlee24GrantleeContactFormatterC1Ev
libKF5KaddressbookGrantlee.so.5:_ZN20KAddressBookGrantlee24GrantleeContactFormatterC2Ev
libKF5KaddressbookGrantlee.so.5:_ZN20KAddressBookGrantlee24GrantleeContactFormatterD0Ev
libKF5KaddressbookGrantlee.so.5:_ZN20KAddressBookGrantlee24GrantleeContactFormatterD1Ev
libKF5KaddressbookGrantlee.so.5:_ZN20KAddressBookGrantlee24GrantleeContactFormatterD2Ev
libKF5KaddressbookGrantlee.so.5:_ZN20KAddressBookGrantlee29GrantleeContactGroupFormatter16setGrantleeThemeERKN13GrantleeTheme5ThemeE
libKF5KaddressbookGrantlee.so.5:_ZN20KAddressBookGrantlee29GrantleeContactGroupFormatter20setAbsoluteThemePathERK7QString
libKF5KaddressbookGrantlee.so.5:_ZN20KAddressBookGrantlee29GrantleeContactGroupFormatterC1Ev
libKF5KaddressbookGrantlee.so.5:_ZN20KAddressBookGrantlee29GrantleeContactGroupFormatterC2Ev
libKF5KaddressbookGrantlee.so.5:_ZN20KAddressBookGrantlee29GrantleeContactGroupFormatterD0Ev
libKF5KaddressbookGrantlee.so.5:_ZN20KAddressBookGrantlee29GrantleeContactGroupFormatterD1Ev
libKF5KaddressbookGrantlee.so.5:_ZN20KAddressBookGrantlee29GrantleeContactGroupFormatterD2Ev
libKF5KaddressbookGrantlee.so.5:_ZNK20KAddressBookGrantlee21GrantleeContactViewer10metaObjectEv
libKF5KaddressbookGrantlee.so.5:_ZNK20KAddressBookGrantlee24GrantleeContactFormatter18forceDisableQRCodeEv
libKF5KaddressbookGrantlee.so.5:_ZNK20KAddressBookGrantlee24GrantleeContactFormatter6toHtmlEN7Akonadi24AbstractContactFormatter8HtmlFormE
libKF5KaddressbookGrantlee.so.5:_ZNK20KAddressBookGrantlee29GrantleeContactGroupFormatter6toHtmlEN7Akonadi29AbstractContactGroupFormatter8HtmlFormE
libKF5KaddressbookGrantlee.so.5:_ZThn16_N20KAddressBookGrantlee21GrantleeContactViewerD0Ev
libKF5KaddressbookGrantlee.so.5:_ZThn16_N20KAddressBookGrantlee21GrantleeContactViewerD1Ev
libKF5KaddressbookGrantlee.so.5:_ZThn48_N20KAddressBookGrantlee21GrantleeContactViewerD0Ev
libKF5KaddressbookGrantlee.so.5:_ZThn48_N20KAddressBookGrantlee21GrantleeContactViewerD1Ev
libKF5KaddressbookImportExport.so.5:_ZN24KAddressBookImportExport30KAddressBookImportExportPlugin11qt_metacallEN11QMetaObject4CallEiPPv
libKF5KaddressbookImportExport.so.5:_ZN24KAddressBookImportExport30KAddressBookImportExportPlugin11qt_metacastEPKc
libKF5KaddressbookImportExport.so.5:_ZN24KAddressBookImportExport30KAddressBookImportExportPluginC1EP7QObject
libKF5KaddressbookImportExport.so.5:_ZN24KAddressBookImportExport30KAddressBookImportExportPluginC2EP7QObject
libKF5KaddressbookImportExport.so.5:_ZN24KAddressBookImportExport30KAddressBookImportExportPluginD0Ev
libKF5KaddressbookImportExport.so.5:_ZN24KAddressBookImportExport30KAddressBookImportExportPluginD1Ev
libKF5KaddressbookImportExport.so.5:_ZN24KAddressBookImportExport30KAddressBookImportExportPluginD2Ev
libKF5KaddressbookImportExport.so.5:_ZN24KAddressBookImportExport33KAddressBookExportSelectionWidget11qt_metacallEN11QMetaObject4CallEiPPv
libKF5KaddressbookImportExport.so.5:_ZN24KAddressBookImportExport33KAddressBookExportSelectionWidget11qt_metacastEPKc
libKF5KaddressbookImportExport.so.5:_ZN24KAddressBookImportExport33KAddressBookExportSelectionWidget12readSettingsEv
libKF5KaddressbookImportExport.so.5:_ZN24KAddressBookImportExport33KAddressBookExportSelectionWidget13writeSettingsEv
libKF5KaddressbookImportExport.so.5:_ZN24KAddressBookImportExport33KAddressBookExportSelectionWidgetC1EP7QWidget
libKF5KaddressbookImportExport.so.5:_ZN24KAddressBookImportExport33KAddressBookExportSelectionWidgetC2EP7QWidget
libKF5KaddressbookImportExport.so.5:_ZN24KAddressBookImportExport33KAddressBookExportSelectionWidgetD0Ev
libKF5KaddressbookImportExport.so.5:_ZN24KAddressBookImportExport33KAddressBookExportSelectionWidgetD1Ev
libKF5KaddressbookImportExport.so.5:_ZN24KAddressBookImportExport33KAddressBookExportSelectionWidgetD2Ev
libKF5KaddressbookImportExport.so.5:_ZN24KAddressBookImportExport34KAddressBookContactSelectionDialog11qt_metacallEN11QMetaObject4CallEiPPv
libKF5KaddressbookImportExport.so.5:_ZN24KAddressBookImportExport34KAddressBookContactSelectionDialog11qt_metacastEPKc
libKF5KaddressbookImportExport.so.5:_ZN24KAddressBookImportExport34KAddressBookContactSelectionDialog14setMessageTextERK7QString
libKF5KaddressbookImportExport.so.5:_ZN24KAddressBookImportExport34KAddressBookContactSelectionDialog18setAddGroupContactEb
libKF5KaddressbookImportExport.so.5:_ZN24KAddressBookImportExport34KAddressBookContactSelectionDialog21setDefaultAddressBookERKN7Akonadi10CollectionE
libKF5KaddressbookImportExport.so.5:_ZN24KAddressBookImportExport34KAddressBookContactSelectionDialogC1EP19QItemSelectionModelbP7QWidget
libKF5KaddressbookImportExport.so.5:_ZN24KAddressBookImportExport34KAddressBookContactSelectionDialogC2EP19QItemSelectionModelbP7QWidget
libKF5KaddressbookImportExport.so.5:_ZN24KAddressBookImportExport34KAddressBookContactSelectionWidget11qt_metacallEN11QMetaObject4CallEiPPv
libKF5KaddressbookImportExport.so.5:_ZN24KAddressBookImportExport34KAddressBookContactSelectionWidget11qt_metacastEPKc
libKF5KaddressbookImportExport.so.5:_ZN24KAddressBookImportExport34KAddressBookContactSelectionWidget14setMessageTextERK7QString
libKF5KaddressbookImportExport.so.5:_ZN24KAddressBookImportExport34KAddressBookContactSelectionWidget18setAddGroupContactEb
libKF5KaddressbookImportExport.so.5:_ZN24KAddressBookImportExport34KAddressBookContactSelectionWidget21setDefaultAddressBookERKN7Akonadi10CollectionE
libKF5KaddressbookImportExport.so.5:_ZN24KAddressBookImportExport34KAddressBookContactSelectionWidget7initGuiEv
libKF5KaddressbookImportExport.so.5:_ZN24KAddressBookImportExport34KAddressBookContactSelectionWidgetC1EP19QItemSelectionModelP7QWidget
libKF5KaddressbookImportExport.so.5:_ZN24KAddressBookImportExport34KAddressBookContactSelectionWidgetC2EP19QItemSelectionModelP7QWidget
libKF5KaddressbookImportExport.so.5:_ZN24KAddressBookImportExport35KAddressBookImportExportContactList14setAddressListERK7QVectorIN9KContacts9AddresseeEE
libKF5KaddressbookImportExport.so.5:_ZN24KAddressBookImportExport35KAddressBookImportExportContactList19setContactGroupListERK7QVectorIN9KContacts12ContactGroupEE
libKF5KaddressbookImportExport.so.5:_ZN24KAddressBookImportExport35KAddressBookImportExportContactList5clearEv
libKF5KaddressbookImportExport.so.5:_ZN24KAddressBookImportExport35KAddressBookImportExportContactList6appendERKN9KContacts12ContactGroupE
libKF5KaddressbookImportExport.so.5:_ZN24KAddressBookImportExport35KAddressBookImportExportContactList6appendERKN9KContacts9AddresseeE
libKF5KaddressbookImportExport.so.5:_ZN24KAddressBookImportExport35KAddressBookImportExportContactListC1Ev
libKF5KaddressbookImportExport.so.5:_ZN24KAddressBookImportExport35KAddressBookImportExportContactListC2Ev
libKF5KaddressbookImportExport.so.5:_ZN24KAddressBookImportExport37KAddressBookImportExportContactFields5labelENS0_5FieldE
libKF5KaddressbookImportExport.so.5:_ZN24KAddressBookImportExport37KAddressBookImportExportContactFields5valueENS0_5FieldERKN9KContacts9AddresseeE
libKF5KaddressbookImportExport.so.5:_ZN24KAddressBookImportExport37KAddressBookImportExportContactFields8setValueENS0_5FieldERK7QStringRN9KContacts9AddresseeE
libKF5KaddressbookImportExport.so.5:_ZN24KAddressBookImportExport37KAddressBookImportExportContactFields9allFieldsEv
libKF5KaddressbookImportExport.so.5:_ZN24KAddressBookImportExport37KAddressBookImportExportPluginManager11qt_metacallEN11QMetaObject4CallEiPPv
libKF5KaddressbookImportExport.so.5:_ZN24KAddressBookImportExport37KAddressBookImportExportPluginManager11qt_metacastEPKc
libKF5KaddressbookImportExport.so.5:_ZN24KAddressBookImportExport37KAddressBookImportExportPluginManager20pluginFromIdentifierERK7QString
libKF5KaddressbookImportExport.so.5:_ZN24KAddressBookImportExport37KAddressBookImportExportPluginManager4selfEv
libKF5KaddressbookImportExport.so.5:_ZN24KAddressBookImportExport37KAddressBookImportExportPluginManagerC1EP7QObject
libKF5KaddressbookImportExport.so.5:_ZN24KAddressBookImportExport37KAddressBookImportExportPluginManagerC2EP7QObject
libKF5KaddressbookImportExport.so.5:_ZN24KAddressBookImportExport37KAddressBookImportExportPluginManagerD0Ev
libKF5KaddressbookImportExport.so.5:_ZN24KAddressBookImportExport37KAddressBookImportExportPluginManagerD1Ev
libKF5KaddressbookImportExport.so.5:_ZN24KAddressBookImportExport37KAddressBookImportExportPluginManagerD2Ev
libKF5KaddressbookImportExport.so.5:_ZN24KAddressBookImportExport39KAddressBookImportExportPluginInterface10importDataERK10QByteArray
libKF5KaddressbookImportExport.so.5:_ZN24KAddressBookImportExport39KAddressBookImportExportPluginInterface10importFileERK4QUrl
libKF5KaddressbookImportExport.so.5:_ZN24KAddressBookImportExport39KAddressBookImportExportPluginInterface11qt_metacallEN11QMetaObject4CallEiPPv
libKF5KaddressbookImportExport.so.5:_ZN24KAddressBookImportExport39KAddressBookImportExportPluginInterface11qt_metacastEPKc
libKF5KaddressbookImportExport.so.5:_ZN24KAddressBookImportExport39KAddressBookImportExportPluginInterface16setExportActionsERK5QListIP7QActionE
libKF5KaddressbookImportExport.so.5:_ZN24KAddressBookImportExport39KAddressBookImportExportPluginInterface16setImportActionsERK5QListIP7QActionE
libKF5KaddressbookImportExport.so.5:_ZN24KAddressBookImportExport39KAddressBookImportExportPluginInterface17canImportFileTypeERK4QUrl
libKF5KaddressbookImportExport.so.5:_ZN24KAddressBookImportExport39KAddressBookImportExportPluginInterface20setDefaultCollectionERKN7Akonadi10CollectionE
libKF5KaddressbookImportExport.so.5:_ZN24KAddressBookImportExport39KAddressBookImportExportPluginInterface21setImportExportActionENS0_18ImportExportActionE
libKF5KaddressbookImportExport.so.5:_ZN24KAddressBookImportExport39KAddressBookImportExportPluginInterface21setItemSelectionModelEP19QItemSelectionModel
libKF5KaddressbookImportExport.so.5:_ZN24KAddressBookImportExport39KAddressBookImportExportPluginInterfaceC1EP7QObject
libKF5KaddressbookImportExport.so.5:_ZN24KAddressBookImportExport39KAddressBookImportExportPluginInterfaceC2EP7QObject
libKF5KaddressbookImportExport.so.5:_ZN24KAddressBookImportExport39KAddressBookImportExportPluginInterfaceD0Ev
libKF5KaddressbookImportExport.so.5:_ZN24KAddressBookImportExport39KAddressBookImportExportPluginInterfaceD1Ev
libKF5KaddressbookImportExport.so.5:_ZN24KAddressBookImportExport39KAddressBookImportExportPluginInterfaceD2Ev
libKF5KaddressbookImportExport.so.5:_ZNK24KAddressBookImportExport30KAddressBookImportExportPlugin10metaObjectEv
libKF5KaddressbookImportExport.so.5:_ZNK24KAddressBookImportExport33KAddressBookExportSelectionWidget10exportTypeEv
libKF5KaddressbookImportExport.so.5:_ZNK24KAddressBookImportExport33KAddressBookExportSelectionWidget10metaObjectEv
libKF5KaddressbookImportExport.so.5:_ZNK24KAddressBookImportExport34KAddressBookContactSelectionDialog10exportTypeEv
libKF5KaddressbookImportExport.so.5:_ZNK24KAddressBookImportExport34KAddressBookContactSelectionDialog10metaObjectEv
libKF5KaddressbookImportExport.so.5:_ZNK24KAddressBookImportExport34KAddressBookContactSelectionDialog13selectedItemsEv
libKF5KaddressbookImportExport.so.5:_ZNK24KAddressBookImportExport34KAddressBookContactSelectionDialog16selectedContactsEv
libKF5KaddressbookImportExport.so.5:_ZNK24KAddressBookImportExport34KAddressBookContactSelectionWidget10metaObjectEv
libKF5KaddressbookImportExport.so.5:_ZNK24KAddressBookImportExport34KAddressBookContactSelectionWidget13selectedItemsEv
libKF5KaddressbookImportExport.so.5:_ZNK24KAddressBookImportExport34KAddressBookContactSelectionWidget15collectAllItemsEv
libKF5KaddressbookImportExport.so.5:_ZNK24KAddressBookImportExport34KAddressBookContactSelectionWidget16selectedContactsEv
libKF5KaddressbookImportExport.so.5:_ZNK24KAddressBookImportExport34KAddressBookContactSelectionWidget18collectAllContactsEv
libKF5KaddressbookImportExport.so.5:_ZNK24KAddressBookImportExport34KAddressBookContactSelectionWidget20collectSelectedItemsEv
libKF5KaddressbookImportExport.so.5:_ZNK24KAddressBookImportExport34KAddressBookContactSelectionWidget23collectAddressBookItemsEv
libKF5KaddressbookImportExport.so.5:_ZNK24KAddressBookImportExport34KAddressBookContactSelectionWidget23collectSelectedContactsEv
libKF5KaddressbookImportExport.so.5:_ZNK24KAddressBookImportExport34KAddressBookContactSelectionWidget26collectAddressBookContactsEv
libKF5KaddressbookImportExport.so.5:_ZNK24KAddressBookImportExport35KAddressBookImportExportContactList11addressListEv
libKF5KaddressbookImportExport.so.5:_ZNK24KAddressBookImportExport35KAddressBookImportExportContactList16contactGroupListEv
libKF5KaddressbookImportExport.so.5:_ZNK24KAddressBookImportExport35KAddressBookImportExportContactList5countEv
libKF5KaddressbookImportExport.so.5:_ZNK24KAddressBookImportExport35KAddressBookImportExportContactList7isEmptyEv
libKF5KaddressbookImportExport.so.5:_ZNK24KAddressBookImportExport37KAddressBookImportExportPluginManager10metaObjectEv
libKF5KaddressbookImportExport.so.5:_ZNK24KAddressBookImportExport37KAddressBookImportExportPluginManager11pluginsListEv
libKF5KaddressbookImportExport.so.5:_ZNK24KAddressBookImportExport37KAddressBookImportExportPluginManager15configGroupNameEv
libKF5KaddressbookImportExport.so.5:_ZNK24KAddressBookImportExport37KAddressBookImportExportPluginManager15pluginsDataListEv
libKF5KaddressbookImportExport.so.5:_ZNK24KAddressBookImportExport37KAddressBookImportExportPluginManager22configPrefixSettingKeyEv
libKF5KaddressbookImportExport.so.5:_ZNK24KAddressBookImportExport39KAddressBookImportExportPluginInterface10metaObjectEv
libKF5KaddressbookImportExport.so.5:_ZNK24KAddressBookImportExport39KAddressBookImportExportPluginInterface13canImportDataEv
libKF5KaddressbookImportExport.so.5:_ZNK24KAddressBookImportExport39KAddressBookImportExportPluginInterface13exportActionsEv
libKF5KaddressbookImportExport.so.5:_ZNK24KAddressBookImportExport39KAddressBookImportExportPluginInterface13importActionsEv
libKF5KaddressbookImportExport.so.5:_ZNK24KAddressBookImportExport39KAddressBookImportExportPluginInterface17defaultCollectionEv
libKF5KaddressbookImportExport.so.5:_ZNK24KAddressBookImportExport39KAddressBookImportExportPluginInterface18importExportActionEv
libKF5KaddressbookImportExport.so.5:_ZNK24KAddressBookImportExport39KAddressBookImportExportPluginInterface18itemSelectionModelEv
libKF5KaddressbookImportExport.so.5:_ZThn16_N24KAddressBookImportExport33KAddressBookExportSelectionWidgetD0Ev
libKF5KaddressbookImportExport.so.5:_ZThn16_N24KAddressBookImportExport33KAddressBookExportSelectionWidgetD1Ev
libKF5KdepimDBusInterfaces.so.5:_ZN10UriHandler7processERK7QStringRKN7Akonadi4ItemE
libKF5KdepimDBusInterfaces.so.5:_ZN4KPIM14ReminderClient10hideDaemonEv
libKF5KdepimDBusInterfaces.so.5:_ZN4KPIM14ReminderClient10showDaemonEv
libKF5KdepimDBusInterfaces.so.5:_ZN4KPIM14ReminderClient10stopDaemonEv
libKF5KdepimDBusInterfaces.so.5:_ZN4KPIM14ReminderClient11startDaemonEv
libKF5SendLater.so.5:_ZN22SendLaterAgentSettings4selfEv
libKF5SendLater.so.5:_ZN22SendLaterAgentSettingsC1Ev
libKF5SendLater.so.5:_ZN22SendLaterAgentSettingsC2Ev
libKF5SendLater.so.5:_ZN22SendLaterAgentSettingsD0Ev
libKF5SendLater.so.5:_ZN22SendLaterAgentSettingsD1Ev
libKF5SendLater.so.5:_ZN22SendLaterAgentSettingsD2Ev
libKF5SendLater.so.5:_ZN9SendLater13SendLaterInfo10readConfigERK12KConfigGroup
libKF5SendLater.so.5:_ZN9SendLater13SendLaterInfo10setSubjectERK7QString
libKF5SendLater.so.5:_ZN9SendLater13SendLaterInfo11setDateTimeERK9QDateTime
libKF5SendLater.so.5:_ZN9SendLater13SendLaterInfo11writeConfigER12KConfigGroup
libKF5SendLater.so.5:_ZN9SendLater13SendLaterInfo13setRecurrenceEb
libKF5SendLater.so.5:_ZN9SendLater13SendLaterInfo17setRecurrenceUnitENS0_14RecurrenceUnitE
libKF5SendLater.so.5:_ZN9SendLater13SendLaterInfo19setLastDateTimeSendERK9QDateTime
libKF5SendLater.so.5:_ZN9SendLater13SendLaterInfo22setRecurrenceEachValueEi
libKF5SendLater.so.5:_ZN9SendLater13SendLaterInfo5setToERK7QString
libKF5SendLater.so.5:_ZN9SendLater13SendLaterInfo9setItemIdEx
libKF5SendLater.so.5:_ZN9SendLater13SendLaterInfoC1ERK12KConfigGroup
libKF5SendLater.so.5:_ZN9SendLater13SendLaterInfoC1ERKS0_
libKF5SendLater.so.5:_ZN9SendLater13SendLaterInfoC1Ev
libKF5SendLater.so.5:_ZN9SendLater13SendLaterInfoC2ERK12KConfigGroup
libKF5SendLater.so.5:_ZN9SendLater13SendLaterInfoC2ERKS0_
libKF5SendLater.so.5:_ZN9SendLater13SendLaterInfoC2Ev
libKF5SendLater.so.5:_ZN9SendLater13SendLaterInfoD1Ev
libKF5SendLater.so.5:_ZN9SendLater13SendLaterInfoD2Ev
libKF5SendLater.so.5:_ZN9SendLater13SendLaterUtil10removeItemEx
libKF5SendLater.so.5:_ZN9SendLater13SendLaterUtil13defaultConfigEv
libKF5SendLater.so.5:_ZN9SendLater13SendLaterUtil16sendLaterPatternEv
libKF5SendLater.so.5:_ZN9SendLater13SendLaterUtil18writeSendLaterInfoE28QExplicitlySharedDataPointerI13KSharedConfigEPNS_13SendLaterInfoEb
libKF5SendLater.so.5:_ZN9SendLater13SendLaterUtil19changeRecurrentDateEPNS_13SendLaterInfoE
libKF5SendLater.so.5:_ZN9SendLater13SendLaterUtil20compareSendLaterInfoEPNS_13SendLaterInfoES2_
libKF5SendLater.so.5:_ZN9SendLater13SendLaterUtil21sentLaterAgentEnabledEv
libKF5SendLater.so.5:_ZN9SendLater13SendLaterUtil25forceReparseConfigurationEv
libKF5SendLater.so.5:_ZN9SendLater13SendLaterUtil27sentLaterAgentWasRegisteredEv
libKF5SendLater.so.5:_ZN9SendLater13SendLaterUtil6reloadEv
libKF5SendLater.so.5:_ZN9SendLater15SendLaterDialog11qt_metacallEN11QMetaObject4CallEiPPv
libKF5SendLater.so.5:_ZN9SendLater15SendLaterDialog11qt_metacastEPKc
libKF5SendLater.so.5:_ZN9SendLater15SendLaterDialog13slotOkClickedEv
libKF5SendLater.so.5:_ZN9SendLater15SendLaterDialog15slotDateChangedERK7QString
libKF5SendLater.so.5:_ZN9SendLater15SendLaterDialog21slotRecurrenceClickedEb
libKF5SendLater.so.5:_ZN9SendLater15SendLaterDialog4infoEv
libKF5SendLater.so.5:_ZN9SendLater15SendLaterDialog4loadEPNS_13SendLaterInfoE
libKF5SendLater.so.5:_ZN9SendLater15SendLaterDialog9slotDelayEb
libKF5SendLater.so.5:_ZN9SendLater15SendLaterDialogC1EPNS_13SendLaterInfoEP7QWidget
libKF5SendLater.so.5:_ZN9SendLater15SendLaterDialogC2EPNS_13SendLaterInfoEP7QWidget
libKF5SendLater.so.5:_ZN9SendLater15SendLaterDialogD0Ev
libKF5SendLater.so.5:_ZN9SendLater15SendLaterDialogD1Ev
libKF5SendLater.so.5:_ZN9SendLater15SendLaterDialogD2Ev
libKF5SendLater.so.5:_ZNK9SendLater13SendLaterInfo12isRecurrenceEv
libKF5SendLater.so.5:_ZNK9SendLater13SendLaterInfo14recurrenceUnitEv
libKF5SendLater.so.5:_ZNK9SendLater13SendLaterInfo16lastDateTimeSendEv
libKF5SendLater.so.5:_ZNK9SendLater13SendLaterInfo19recurrenceEachValueEv
libKF5SendLater.so.5:_ZNK9SendLater13SendLaterInfo2toEv
libKF5SendLater.so.5:_ZNK9SendLater13SendLaterInfo6itemIdEv
libKF5SendLater.so.5:_ZNK9SendLater13SendLaterInfo7isValidEv
libKF5SendLater.so.5:_ZNK9SendLater13SendLaterInfo7subjectEv
libKF5SendLater.so.5:_ZNK9SendLater13SendLaterInfo8dateTimeEv
libKF5SendLater.so.5:_ZNK9SendLater13SendLaterInfoeqERKS0_
libKF5SendLater.so.5:_ZNK9SendLater15SendLaterDialog10metaObjectEv
libKF5SendLater.so.5:_ZNK9SendLater15SendLaterDialog6actionEv
libKF5SendLater.so.5:_ZThn16_N9SendLater15SendLaterDialogD0Ev
libKF5SendLater.so.5:_ZThn16_N9SendLater15SendLaterDialogD1Ev
libKF5SendLater.so.5:_Zls6QDebugRKN9SendLater13SendLaterInfoE
